target datalayout = "e-m:e-p270:32:32-p271:32:32-p272:64:64-i64:64-i128:128-f80:128-n8:16:32:64-S128"
target triple = "x86_64-pc-linux-gnu"

@.str.8101 = private unnamed_addr constant [21 x i8] c"RSRP < -157dBm (-17)\00", align 1
@.str.8102 = private unnamed_addr constant [27 x i8] c"%ddBm <= RSRP < %ddBm (%d)\00", align 1

; Function Attrs: null_pointer_is_valid sspstrong uwtable
define internal void @lpp_rsrp_Result_v1470_fmt(ptr noundef %0, i32 noundef %1) #0 {
  %3 = alloca ptr, align 8
  %4 = alloca i32, align 4
  %5 = alloca i32, align 4
  store ptr %0, ptr %3, align 8
  store i32 %1, ptr %4, align 4
  call void @llvm.lifetime.start.p0(i64 4, ptr %5) #8
  %6 = load i32, ptr %4, align 4
  store i32 %6, ptr %5, align 4
  %7 = load i32, ptr %5, align 4
  %8 = icmp eq i32 %7, -17
  br i1 %8, label %9, label %14

9:                                                ; preds = %2
  %10 = load ptr, ptr %3, align 8
  %11 = load ptr, ptr %3, align 8
  %12 = call i64 @llvm.objectsize.i64.p0(ptr %11, i1 false, i1 true, i1 true)
  %13 = call i32 (ptr, i64, i32, i64, ptr, ...) @__snprintf_chk(ptr noundef %10, i64 noundef 240, i32 noundef 2, i64 noundef %12, ptr noundef @.str.8101)
  br label %24

14:                                               ; preds = %2
  %15 = load ptr, ptr %3, align 8
  %16 = load ptr, ptr %3, align 8
  %17 = call i64 @llvm.objectsize.i64.p0(ptr %16, i1 false, i1 true, i1 true)
  %18 = load i32, ptr %5, align 4
  %19 = sub i32 %18, 141
  %20 = load i32, ptr %5, align 4
  %21 = sub i32 %20, 140
  %22 = load i32, ptr %5, align 4
  %23 = call i32 (ptr, i64, i32, i64, ptr, ...) @__snprintf_chk(ptr noundef %15, i64 noundef 240, i32 noundef 2, i64 noundef %17, ptr noundef @.str.8102, i32 noundef %19, i32 noundef %21, i32 noundef %22)
  br label %24

24:                                               ; preds = %14, %9
  call void @llvm.lifetime.end.p0(i64 4, ptr %5) #8
  ret void
}