; Function Attrs: nofree null_pointer_is_valid sspstrong uwtable
define internal void @lpp_rsrp_Result_v1470_fmt(ptr noundef %0, i32 noundef %1) #3 {
  %3 = icmp eq i32 %1, -17
  br i1 %3, label %4, label %6

4:                                                ; preds = %2
  %5 = tail call i32 (ptr, i64, i32, i64, ptr, ...) @__snprintf_chk(ptr noundef %0, i64 noundef 240, i32 noundef 2, i64 noundef -1, ptr noundef nonnull @.str.8101)
  br label %10

6:                                                ; preds = %2
  %7 = add i32 %1, -141
  %8 = add i32 %1, -140
  %9 = tail call i32 (ptr, i64, i32, i64, ptr, ...) @__snprintf_chk(ptr noundef %0, i64 noundef 240, i32 noundef 2, i64 noundef -1, ptr noundef nonnull @.str.8102, i32 noundef %7, i32 noundef %8, i32 noundef %1)
  br label %10

10:                                               ; preds = %6, %4
  ret void
}